target datalayout = "e-m:e-p270:32:32-p271:32:32-p272:64:64-i64:64-i128:128-f80:128-n8:16:32:64-S128"
target triple = "x86_64-pc-linux-gnu"

%struct.PLpgSQL_execstate = type { ptr, ptr, ptr, i64, i8, i32, i32, i8, i8, i8, i8, ptr, ptr, ptr, ptr, ptr, ptr, ptr, i32, i32, ptr, ptr, ptr, ptr, ptr, ptr, ptr, ptr, ptr, ptr, i64, ptr, ptr, ptr, ptr, ptr }
%struct.ExprContext = type { i32, ptr, ptr, ptr, ptr, ptr, ptr, ptr, ptr, ptr, i64, i8, i64, i8, ptr, ptr, ptr, ptr }
%struct.TupleDescData = type { i32, i32, i32, i32, ptr, [0 x %struct.CompactAttribute] }
%struct.CompactAttribute = type { i32, i16, i8, i8, i8, i8, i8, i8, i8 }
%struct.FormData_pg_attribute = type { i32, %struct.nameData, i32, i16, i16, i32, i16, i8, i8, i8, i8, i8, i8, i8, i8, i8, i8, i8, i16, i32 }
%struct.nameData = type { [64 x i8] }
%struct.PLpgSQL_row = type { i32, i32, ptr, i32, i8, i8, ptr, ptr, i32, ptr, ptr }

; Function Attrs: inlinehint nounwind uwtable
define internal ptr @TupleDescAttr(ptr noundef %0, i32 noundef %1) #2 {
  %3 = alloca ptr, align 8
  %4 = alloca i32, align 4
  %5 = alloca ptr, align 8
  store ptr %0, ptr %3, align 8
  store i32 %1, ptr %4, align 4
  call void @llvm.lifetime.start.p0(i64 8, ptr %5) #12
  %6 = load ptr, ptr %3, align 8
  %7 = load ptr, ptr %3, align 8
  %8 = getelementptr inbounds nuw %struct.TupleDescData, ptr %7, i32 0, i32 0
  %9 = load i32, ptr %8, align 8
  %10 = sext i32 %9 to i64
  %11 = mul i64 %10, 16
  %12 = add i64 24, %11
  %13 = getelementptr inbounds nuw i8, ptr %6, i64 %12
  store ptr %13, ptr %5, align 8
  %14 = load ptr, ptr %5, align 8
  %15 = load i32, ptr %4, align 4
  %16 = sext i32 %15 to i64
  %17 = getelementptr inbounds %struct.FormData_pg_attribute, ptr %14, i64 %16
  call void @llvm.lifetime.end.p0(i64 8, ptr %5) #12
  ret ptr %17
}

; Function Attrs: nounwind uwtable
define internal ptr @make_tuple_from_row(ptr noundef %0, ptr noundef %1, ptr noundef %2) #0 {
  %4 = alloca ptr, align 8
  %5 = alloca ptr, align 8
  %6 = alloca ptr, align 8
  %7 = alloca ptr, align 8
  %8 = alloca i32, align 4
  %9 = alloca ptr, align 8
  %10 = alloca ptr, align 8
  %11 = alloca ptr, align 8
  %12 = alloca i32, align 4
  %13 = alloca i32, align 4
  %14 = alloca i32, align 4
  %15 = alloca i32, align 4
  store ptr %0, ptr %5, align 8
  store ptr %1, ptr %6, align 8
  store ptr %2, ptr %7, align 8
  call void @llvm.lifetime.start.p0(i64 4, ptr %8) #12
  %16 = load ptr, ptr %7, align 8
  %17 = getelementptr inbounds nuw %struct.TupleDescData, ptr %16, i32 0, i32 0
  %18 = load i32, ptr %17, align 8
  store i32 %18, ptr %8, align 4
  call void @llvm.lifetime.start.p0(i64 8, ptr %9) #12
  call void @llvm.lifetime.start.p0(i64 8, ptr %10) #12
  call void @llvm.lifetime.start.p0(i64 8, ptr %11) #12
  call void @llvm.lifetime.start.p0(i64 4, ptr %12) #12
  %19 = load i32, ptr %8, align 4
  %20 = load ptr, ptr %6, align 8
  %21 = getelementptr inbounds nuw %struct.PLpgSQL_row, ptr %20, i32 0, i32 8
  %22 = load i32, ptr %21, align 8
  %23 = icmp ne i32 %19, %22
  br i1 %23, label %24, label %25

24:                                               ; preds = %3
  store ptr null, ptr %4, align 8
  store i32 1, ptr %13, align 4
  br label %104

25:                                               ; preds = %3
  %26 = load ptr, ptr %5, align 8
  %27 = getelementptr inbounds nuw %struct.PLpgSQL_execstate, ptr %26, i32 0, i32 31
  %28 = load ptr, ptr %27, align 8
  %29 = getelementptr inbounds nuw %struct.ExprContext, ptr %28, i32 0, i32 5
  %30 = load ptr, ptr %29, align 8
  %31 = load i32, ptr %8, align 4
  %32 = sext i32 %31 to i64
  %33 = mul i64 %32, 8
  %34 = call ptr @MemoryContextAllocZero(ptr noundef %30, i64 noundef %33)
  store ptr %34, ptr %10, align 8
  %35 = load ptr, ptr %5, align 8
  %36 = getelementptr inbounds nuw %struct.PLpgSQL_execstate, ptr %35, i32 0, i32 31
  %37 = load ptr, ptr %36, align 8
  %38 = getelementptr inbounds nuw %struct.ExprContext, ptr %37, i32 0, i32 5
  %39 = load ptr, ptr %38, align 8
  %40 = load i32, ptr %8, align 4
  %41 = sext i32 %40 to i64
  %42 = mul i64 %41, 1
  %43 = call ptr @MemoryContextAlloc(ptr noundef %39, i64 noundef %42)
  store ptr %43, ptr %11, align 8
  store i32 0, ptr %12, align 4
  br label %44

44:                                               ; preds = %95, %25
  %45 = load i32, ptr %12, align 4
  %46 = load i32, ptr %8, align 4
  %47 = icmp slt i32 %45, %46
  br i1 %47, label %48, label %98

48:                                               ; preds = %44
  call void @llvm.lifetime.start.p0(i64 4, ptr %14) #12
  call void @llvm.lifetime.start.p0(i64 4, ptr %15) #12
  %49 = load ptr, ptr %7, align 8
  %50 = load i32, ptr %12, align 4
  %51 = call ptr @TupleDescAttr(ptr noundef %49, i32 noundef %50)
  %52 = getelementptr inbounds nuw %struct.FormData_pg_attribute, ptr %51, i32 0, i32 16
  %53 = load i8, ptr %52, align 1, !range !3, !noundef !4
  %54 = trunc i8 %53 to i1
  br i1 %54, label %55, label %60

55:                                               ; preds = %48
  %56 = load ptr, ptr %11, align 8
  %57 = load i32, ptr %12, align 4
  %58 = sext i32 %57 to i64
  %59 = getelementptr inbounds i8, ptr %56, i64 %58
  store i8 1, ptr %59, align 1
  store i32 4, ptr %13, align 4
  br label %92

60:                                               ; preds = %48
  %61 = load ptr, ptr %5, align 8
  %62 = load ptr, ptr %5, align 8
  %63 = getelementptr inbounds nuw %struct.PLpgSQL_execstate, ptr %62, i32 0, i32 20
  %64 = load ptr, ptr %63, align 8
  %65 = load ptr, ptr %6, align 8
  %66 = getelementptr inbounds nuw %struct.PLpgSQL_row, ptr %65, i32 0, i32 10
  %67 = load ptr, ptr %66, align 8
  %68 = load i32, ptr %12, align 4
  %69 = sext i32 %68 to i64
  %70 = getelementptr inbounds i32, ptr %67, i64 %69
  %71 = load i32, ptr %70, align 4
  %72 = sext i32 %71 to i64
  %73 = getelementptr inbounds ptr, ptr %64, i64 %72
  %74 = load ptr, ptr %73, align 8
  %75 = load ptr, ptr %10, align 8
  %76 = load i32, ptr %12, align 4
  %77 = sext i32 %76 to i64
  %78 = getelementptr inbounds i64, ptr %75, i64 %77
  %79 = load ptr, ptr %11, align 8
  %80 = load i32, ptr %12, align 4
  %81 = sext i32 %80 to i64
  %82 = getelementptr inbounds i8, ptr %79, i64 %81
  call void @exec_eval_datum(ptr noundef %61, ptr noundef %74, ptr noundef %14, ptr noundef %15, ptr noundef %78, ptr noundef %82)
  %83 = load i32, ptr %14, align 4
  %84 = load ptr, ptr %7, align 8
  %85 = load i32, ptr %12, align 4
  %86 = call ptr @TupleDescAttr(ptr noundef %84, i32 noundef %85)
  %87 = getelementptr inbounds nuw %struct.FormData_pg_attribute, ptr %86, i32 0, i32 2
  %88 = load i32, ptr %87, align 4
  %89 = icmp ne i32 %83, %88
  br i1 %89, label %90, label %91

90:                                               ; preds = %60
  store ptr null, ptr %4, align 8
  store i32 1, ptr %13, align 4
  br label %92

91:                                               ; preds = %60
  store i32 0, ptr %13, align 4
  br label %92

92:                                               ; preds = %91, %90, %55
  call void @llvm.lifetime.end.p0(i64 4, ptr %15) #12
  call void @llvm.lifetime.end.p0(i64 4, ptr %14) #12
  %93 = load i32, ptr %13, align 4
  switch i32 %93, label %104 [
    i32 0, label %94
    i32 4, label %95
  ]

94:                                               ; preds = %92
  br label %95

95:                                               ; preds = %94, %92
  %96 = load i32, ptr %12, align 4
  %97 = add i32 %96, 1
  store i32 %97, ptr %12, align 4
  br label %44, !llvm.loop !26

98:                                               ; preds = %44
  %99 = load ptr, ptr %7, align 8
  %100 = load ptr, ptr %10, align 8
  %101 = load ptr, ptr %11, align 8
  %102 = call ptr @heap_form_tuple(ptr noundef %99, ptr noundef %100, ptr noundef %101)
  store ptr %102, ptr %9, align 8
  %103 = load ptr, ptr %9, align 8
  store ptr %103, ptr %4, align 8
  store i32 1, ptr %13, align 4
  br label %104

104:                                              ; preds = %98, %92, %24
  call void @llvm.lifetime.end.p0(i64 4, ptr %12) #12
  call void @llvm.lifetime.end.p0(i64 8, ptr %11) #12
  call void @llvm.lifetime.end.p0(i64 8, ptr %10) #12
  call void @llvm.lifetime.end.p0(i64 8, ptr %9) #12
  call void @llvm.lifetime.end.p0(i64 4, ptr %8) #12
  %105 = load ptr, ptr %4, align 8
  ret ptr %105
}