; Function Attrs: nounwind uwtable
define internal fastcc ptr @make_tuple_from_row(ptr noundef readonly captures(none) %0, ptr noundef readonly captures(none) %1, ptr noundef %2) unnamed_addr #0 {
  %4 = alloca i32, align 4
  %5 = alloca i32, align 4
  %6 = load i32, ptr %2, align 8
  %7 = getelementptr inbounds nuw i8, ptr %1, i64 40
  %8 = load i32, ptr %7, align 8
  %.not = icmp eq i32 %6, %8
  br i1 %.not, label %9, label %51

9:                                                ; preds = %3
  %10 = getelementptr inbounds nuw i8, ptr %0, i64 200
  %11 = load ptr, ptr %10, align 8
  %12 = getelementptr inbounds nuw i8, ptr %11, i64 40
  %13 = load ptr, ptr %12, align 8
  %14 = sext i32 %6 to i64
  %15 = shl nsw i64 %14, 3
  %16 = tail call ptr @MemoryContextAllocZero(ptr noundef %13, i64 noundef %15) #12
  %17 = load ptr, ptr %10, align 8
  %18 = getelementptr inbounds nuw i8, ptr %17, i64 40
  %19 = load ptr, ptr %18, align 8
  %20 = tail call ptr @MemoryContextAlloc(ptr noundef %19, i64 noundef %14) #12
  %invariant.gep = getelementptr i8, ptr %2, i64 115
  %invariant.gep35 = getelementptr i8, ptr %2, i64 92
  %21 = icmp sgt i32 %6, 0
  br i1 %21, label %.lr.ph, label %._crit_edge

.lr.ph:                                           ; preds = %9
  %22 = getelementptr inbounds nuw i8, ptr %0, i64 112
  %23 = getelementptr inbounds nuw i8, ptr %1, i64 56
  %wide.trip.count = zext nneg i32 %6 to i64
  br label %24

24:                                               ; preds = %.lr.ph, %select.unfold
  %indvars.iv = phi i64 [ 0, %.lr.ph ], [ %indvars.iv.next, %select.unfold ]
  call void @llvm.lifetime.start.p0(i64 4, ptr nonnull %4) #12
  call void @llvm.lifetime.start.p0(i64 4, ptr nonnull %5) #12
  %25 = load i32, ptr %2, align 8
  %26 = sext i32 %25 to i64
  %27 = shl nsw i64 %26, 4
  %.idx = mul nuw nsw i64 %indvars.iv, 100
  %gep = getelementptr i8, ptr %invariant.gep, i64 %27
  %28 = getelementptr i8, ptr %gep, i64 %.idx
  %29 = load i8, ptr %28, align 1, !range !3, !noundef !4
  %30 = trunc nuw i8 %29 to i1
  br i1 %30, label %31, label %33

31:                                               ; preds = %24
  %32 = getelementptr inbounds nuw i8, ptr %20, i64 %indvars.iv
  store i8 1, ptr %32, align 1
  br label %select.unfold

33:                                               ; preds = %24
  %34 = load ptr, ptr %22, align 8
  %35 = load ptr, ptr %23, align 8
  %36 = getelementptr inbounds nuw i32, ptr %35, i64 %indvars.iv
  %37 = load i32, ptr %36, align 4
  %38 = sext i32 %37 to i64
  %39 = getelementptr inbounds ptr, ptr %34, i64 %38
  %40 = load ptr, ptr %39, align 8
  %41 = getelementptr inbounds nuw i64, ptr %16, i64 %indvars.iv
  %42 = getelementptr inbounds nuw i8, ptr %20, i64 %indvars.iv
  call void @exec_eval_datum(ptr noundef %0, ptr noundef %40, ptr noundef nonnull %4, ptr noundef nonnull %5, ptr noundef %41, ptr noundef %42)
  %43 = load i32, ptr %4, align 4
  %44 = load i32, ptr %2, align 8
  %45 = sext i32 %44 to i64
  %46 = shl nsw i64 %45, 4
  %gep36 = getelementptr i8, ptr %invariant.gep35, i64 %46
  %47 = getelementptr i8, ptr %gep36, i64 %.idx
  %48 = load i32, ptr %47, align 4
  %.not32 = icmp eq i32 %43, %48
  br i1 %.not32, label %select.unfold, label %49

49:                                               ; preds = %33
  call void @llvm.lifetime.end.p0(i64 4, ptr nonnull %5) #12
  call void @llvm.lifetime.end.p0(i64 4, ptr nonnull %4) #12
  br label %51

select.unfold:                                    ; preds = %33, %31
  call void @llvm.lifetime.end.p0(i64 4, ptr nonnull %5) #12
  call void @llvm.lifetime.end.p0(i64 4, ptr nonnull %4) #12
  %indvars.iv.next = add nuw nsw i64 %indvars.iv, 1
  %exitcond.not = icmp eq i64 %indvars.iv.next, %wide.trip.count
  br i1 %exitcond.not, label %._crit_edge, label %24, !llvm.loop !21

._crit_edge:                                      ; preds = %select.unfold, %9
  %50 = tail call ptr @heap_form_tuple(ptr noundef nonnull %2, ptr noundef %16, ptr noundef %20) #12
  br label %51

51:                                               ; preds = %49, %3, %._crit_edge
  %.030 = phi ptr [ null, %49 ], [ %50, %._crit_edge ], [ null, %3 ]
  ret ptr %.030
}